target datalayout = "e-m:e-p270:32:32-p271:32:32-p272:64:64-i64:64-i128:128-f80:128-n8:16:32:64-S128"
target triple = "x86_64-pc-linux-gnu"

%struct.pg_compress_specification = type { i32, i32, i32, i32, i8, ptr }
%struct._archiveHandle = type { %struct.Archive, i32, ptr, ptr, i64, i64, i32, %struct.sqlparseInfo, i64, i32, ptr, i64, i64, i64, ptr, ptr, ptr, ptr, ptr, ptr, ptr, ptr, ptr, ptr, ptr, ptr, ptr, ptr, ptr, ptr, ptr, ptr, ptr, ptr, ptr, ptr, ptr, ptr, ptr, ptr, ptr, ptr, ptr, ptr, i32, i32, i8, i32, i8, i32, ptr, ptr, ptr, ptr, i32, i32, ptr, ptr, ptr, %struct.pg_compress_specification, i8, i32, i32, ptr, ptr, ptr, ptr, ptr, i32, ptr, i64, i64, i32, i32, i32, i32, ptr, ptr }
%struct.Archive = type { ptr, ptr, i32, ptr, i32, i8, i32, i32, i32, ptr, i32, i8, ptr, ptr, i8, i32, ptr }
%struct.sqlparseInfo = type { i32, i8, ptr }
%struct.CompressFileHandle = type { ptr, ptr, ptr, ptr, ptr, ptr, ptr, ptr, ptr, %struct.pg_compress_specification, ptr }

@.str.194 = private unnamed_addr constant [2 x i8] c"-\00", align 1
@stdout = external global ptr, align 8
@.str.195 = private unnamed_addr constant [2 x i8] c"a\00", align 1
@.str.196 = private unnamed_addr constant [2 x i8] c"w\00", align 1
@.str.197 = private unnamed_addr constant [36 x i8] c"could not open output file \22%s\22: %m\00", align 1
@.str.198 = private unnamed_addr constant [31 x i8] c"could not open output file: %m\00", align 1

; Function Attrs: nounwind uwtable
define internal void @SetOutput(ptr noundef %0, ptr noundef %1, ptr noundef byval(%struct.pg_compress_specification) align 8 %2) #0 {
  %4 = alloca ptr, align 8
  %5 = alloca ptr, align 8
  %6 = alloca ptr, align 8
  %7 = alloca ptr, align 8
  %8 = alloca i32, align 4
  store ptr %0, ptr %4, align 8
  store ptr %1, ptr %5, align 8
  call void @llvm.lifetime.start.p0(i64 8, ptr %6) #11
  call void @llvm.lifetime.start.p0(i64 8, ptr %7) #11
  call void @llvm.lifetime.start.p0(i64 4, ptr %8) #11
  store i32 -1, ptr %8, align 4
  %9 = load ptr, ptr %5, align 8
  %10 = icmp ne ptr %9, null
  br i1 %10, label %11, label %19

11:                                               ; preds = %3
  %12 = load ptr, ptr %5, align 8
  %13 = call i32 @strcmp(ptr noundef %12, ptr noundef @.str.194) #14
  %14 = icmp eq i32 %13, 0
  br i1 %14, label %15, label %18

15:                                               ; preds = %11
  %16 = load ptr, ptr @stdout, align 8
  %17 = call i32 @fileno(ptr noundef %16) #11
  store i32 %17, ptr %8, align 4
  br label %18

18:                                               ; preds = %15, %11
  br label %43

19:                                               ; preds = %3
  %20 = load ptr, ptr %4, align 8
  %21 = getelementptr inbounds nuw %struct._archiveHandle, ptr %20, i32 0, i32 51
  %22 = load ptr, ptr %21, align 8
  %23 = icmp ne ptr %22, null
  br i1 %23, label %24, label %29

24:                                               ; preds = %19
  %25 = load ptr, ptr %4, align 8
  %26 = getelementptr inbounds nuw %struct._archiveHandle, ptr %25, i32 0, i32 51
  %27 = load ptr, ptr %26, align 8
  %28 = call i32 @fileno(ptr noundef %27) #11
  store i32 %28, ptr %8, align 4
  br label %42

29:                                               ; preds = %19
  %30 = load ptr, ptr %4, align 8
  %31 = getelementptr inbounds nuw %struct._archiveHandle, ptr %30, i32 0, i32 50
  %32 = load ptr, ptr %31, align 8
  %33 = icmp ne ptr %32, null
  br i1 %33, label %34, label %38

34:                                               ; preds = %29
  %35 = load ptr, ptr %4, align 8
  %36 = getelementptr inbounds nuw %struct._archiveHandle, ptr %35, i32 0, i32 50
  %37 = load ptr, ptr %36, align 8
  store ptr %37, ptr %5, align 8
  br label %41

38:                                               ; preds = %29
  %39 = load ptr, ptr @stdout, align 8
  %40 = call i32 @fileno(ptr noundef %39) #11
  store i32 %40, ptr %8, align 4
  br label %41

41:                                               ; preds = %38, %34
  br label %42

42:                                               ; preds = %41, %24
  br label %43

43:                                               ; preds = %42, %18
  %44 = load ptr, ptr %4, align 8
  %45 = getelementptr inbounds nuw %struct._archiveHandle, ptr %44, i32 0, i32 62
  %46 = load i32, ptr %45, align 8
  %47 = icmp eq i32 %46, 0
  br i1 %47, label %48, label %49

48:                                               ; preds = %43
  store ptr @.str.195, ptr %7, align 8
  br label %50

49:                                               ; preds = %43
  store ptr @.str.196, ptr %7, align 8
  br label %50

50:                                               ; preds = %49, %48
  %51 = call ptr @InitCompressFileHandle(ptr noundef byval(%struct.pg_compress_specification) align 8 %2)
  store ptr %51, ptr %6, align 8
  %52 = load ptr, ptr %6, align 8
  %53 = getelementptr inbounds nuw %struct.CompressFileHandle, ptr %52, i32 0, i32 0
  %54 = load ptr, ptr %53, align 8
  %55 = load ptr, ptr %5, align 8
  %56 = load i32, ptr %8, align 4
  %57 = load ptr, ptr %7, align 8
  %58 = load ptr, ptr %6, align 8
  %59 = call zeroext i1 %54(ptr noundef %55, i32 noundef %56, ptr noundef %57, ptr noundef %58)
  br i1 %59, label %73, label %60

60:                                               ; preds = %50
  %61 = load ptr, ptr %5, align 8
  %62 = icmp ne ptr %61, null
  br i1 %62, label %63, label %68

63:                                               ; preds = %60
  br label %64

64:                                               ; preds = %63
  %65 = load ptr, ptr %5, align 8
  call void (i32, i32, ptr, ...) @pg_log_generic(i32 noundef 4, i32 noundef 0, ptr noundef @.str.197, ptr noundef %65)
  call void @exit_nicely(i32 noundef 1) #12
  unreachable

66:                                               ; No predecessors!
  br label %67

67:                                               ; preds = %66
  br label %72

68:                                               ; preds = %60
  br label %69

69:                                               ; preds = %68
  call void (i32, i32, ptr, ...) @pg_log_generic(i32 noundef 4, i32 noundef 0, ptr noundef @.str.198)
  call void @exit_nicely(i32 noundef 1) #12
  unreachable

70:                                               ; No predecessors!
  br label %71

71:                                               ; preds = %70
  br label %72

72:                                               ; preds = %71, %67
  br label %73

73:                                               ; preds = %72, %50
  %74 = load ptr, ptr %6, align 8
  %75 = load ptr, ptr %4, align 8
  %76 = getelementptr inbounds nuw %struct._archiveHandle, ptr %75, i32 0, i32 52
  store ptr %74, ptr %76, align 8
  call void @llvm.lifetime.end.p0(i64 4, ptr %8) #11
  call void @llvm.lifetime.end.p0(i64 8, ptr %7) #11
  call void @llvm.lifetime.end.p0(i64 8, ptr %6) #11
  ret void
}